
Memory Configuration

Name             Origin             Length             Attributes
exec_file        0x0000000000000000 0x0000000000100000 r
ram              0x0000000000110000 0x00000000000f0000 rw
*default*        0x0000000000000000 0xffffffffffffffff

Linker script and memory map


.header         0x0000000000000000       0x10
                0x0000000000000000        0x8 QUAD 0x113930 __bss_start
                0x0000000000000008        0x8 QUAD 0x50 (__bss_end - __bss_start)

.body           0x0000000000110000     0x4028 load address 0x0000000000000010
 *(.text)
 .text          0x0000000000110000       0x2a entry.o
                0x0000000000110000                entry
 .text          0x000000000011002a      0x477 main.o
                0x000000000011002a                start_kernel
                0x0000000000110255                handler
                0x0000000000110268                isr_exception
                0x000000000011036e                isr_exception_werror
 .text          0x00000000001104a1      0x219 fb.o
                0x00000000001104a1                fb_init
                0x00000000001104e3                set_fg
                0x0000000000110519                set_bg
                0x000000000011054f                draw_px
                0x00000000001105b2                draw_px_fg
                0x00000000001105f1                fill_rect
                0x000000000011066b                clear_screen
 .text          0x00000000001106ba      0x2a6 fbcon.o
                0x00000000001106ba                putc
                0x0000000000110812                puts
                0x0000000000110848                putd
                0x00000000001108e4                puth
 .text          0x0000000000110960        0x0 font.o
 .text          0x0000000000110960       0x36 asmfunc.o
                0x0000000000110960                inb
                0x0000000000110965                outb
                0x000000000011096d                hlt
                0x000000000011096e                sti
                0x0000000000110970                lgdt
                0x0000000000110992                lidt
 .text          0x0000000000110996      0x1bd serial.o
                0x0000000000110996                init_serial
                0x0000000000110a06                serial_received
                0x0000000000110a19                read_serial
                0x0000000000110a33                getc_serial
                0x0000000000110a68                gets_serial
                0x0000000000110ab2                is_transmit_empty
                0x0000000000110ac5                write_serial
                0x0000000000110af2                putc_serial
                0x0000000000110b1d                puts_serial
 .text          0x0000000000110b53      0x12e idt.o
                0x0000000000110b53                set_idt_gate_desc
                0x0000000000110bca                set_intr_gate
                0x0000000000110c0a                init_idt
                0x0000000000110c62                idt_load
 .text          0x0000000000110c81       0x2b util.o
                0x0000000000110c81                panic
 .text          0x0000000000110cac      0x5a3 hpet.o
                0x0000000000110cac                init_hpet
                0x0000000000110dcc                dump_gcidr
                0x0000000000110ed7                dump_gcr
                0x0000000000110f60                dump_mcr
                0x0000000000110f9c                sleep
                0x000000000011108e                do_hpet_interrupt
                0x0000000000111154                alert
 .text          0x000000000011124f      0x181 acpi.o
                0x000000000011124f                init_acpi
                0x0000000000111284                dump_sdth_sig
                0x00000000001112bc                dump_xsdt
                0x000000000011135c                get_sdt
 .text          0x00000000001113d0      0x129 pic.o
                0x00000000001113d0                init_pic
                0x000000000011146d                enable_pic_intr
                0x00000000001114c9                set_pic_eoi
 .text          0x00000000001114f9      0x189 common.o
                0x00000000001114f9                strcmp
                0x000000000011158e                strncmp
                0x0000000000111633                memcpy
 .text          0x0000000000111682      0x4ff handler.o
                0x0000000000111682                default_handler
                0x0000000000111684                hpet_handler
                0x000000000011169c                intr_de
                0x00000000001116db                intr_db
                0x000000000011171a                intr_nmi
                0x0000000000111759                intr_bp
                0x0000000000111798                intr_of
                0x00000000001117d7                intr_br
                0x0000000000111816                intr_ud
                0x0000000000111855                intr_df
                0x000000000011189c                intr_cso
                0x00000000001118db                intr_ts
                0x0000000000111922                intr_np
                0x0000000000111969                intr_ss
                0x00000000001119b0                intr_gp
                0x00000000001119f7                intr_mf
                0x0000000000111a36                intr_ac
                0x0000000000111a7d                intr_mc
                0x0000000000111abc                intr_xm
                0x0000000000111afb                intr_ve
                0x0000000000111b3a                intr_sx
 *(.rodata)
 .rodata        0x0000000000111b81       0x67 main.o
 *fill*         0x0000000000111be8       0x18 
 .rodata        0x0000000000111c00     0x1c70 font.o
                0x0000000000111c00                font_bitmap
 .rodata        0x0000000000113870       0x11 util.o
 .rodata        0x0000000000113881       0x7e hpet.o
 .rodata        0x00000000001138ff        0xd acpi.o
 *(.data)
 .data          0x000000000011390c       0x24 entry.o
 .data          0x0000000000113930        0x0 main.o
 .data          0x0000000000113930        0x0 fb.o
 .data          0x0000000000113930        0x0 fbcon.o
 .data          0x0000000000113930        0x0 font.o
 .data          0x0000000000113930        0x0 asmfunc.o
 .data          0x0000000000113930        0x0 serial.o
 .data          0x0000000000113930        0x0 idt.o
 .data          0x0000000000113930        0x0 util.o
 .data          0x0000000000113930        0x0 hpet.o
 .data          0x0000000000113930        0x0 acpi.o
 .data          0x0000000000113930        0x0 pic.o
 .data          0x0000000000113930        0x0 common.o
 .data          0x0000000000113930        0x0 handler.o
                0x0000000000113930                __bss_start = .
 *(.bss)
 .bss           0x0000000000113930        0x0 entry.o
 .bss           0x0000000000113930        0x0 main.o
 .bss           0x0000000000113930       0x20 fb.o
                0x0000000000113930                fb
                0x0000000000113948                color_fg
                0x000000000011394c                color_bg
 .bss           0x0000000000113950        0x8 fbcon.o
                0x0000000000113950                cursor_x
                0x0000000000113954                cursor_y
 .bss           0x0000000000113958        0x0 font.o
 .bss           0x0000000000113958        0x0 asmfunc.o
 .bss           0x0000000000113958        0x0 serial.o
 .bss           0x0000000000113958        0x0 idt.o
 .bss           0x0000000000113958        0x0 util.o
 .bss           0x0000000000113958       0x18 hpet.o
                0x0000000000113958                reg_base
                0x0000000000113960                counter_clk_period
                0x0000000000113968                user_handler
 .bss           0x0000000000113970       0x10 acpi.o
                0x0000000000113970                xsdt
                0x0000000000113978                num_sdts
 .bss           0x0000000000113980        0x0 pic.o
 .bss           0x0000000000113980        0x0 common.o
 .bss           0x0000000000113980        0x0 handler.o
                0x0000000000113980                __bss_end = .
 *(.eh_frame)
 .eh_frame      0x0000000000113980       0x90 main.o
 .eh_frame      0x0000000000113a10       0xf8 fb.o
 .eh_frame      0x0000000000113b08       0x98 fbcon.o
 .eh_frame      0x0000000000113ba0      0x138 serial.o
 .eh_frame      0x0000000000113cd8       0x98 idt.o
 .eh_frame      0x0000000000113d70       0x38 util.o
 .eh_frame      0x0000000000113da8       0xf8 hpet.o
 .eh_frame      0x0000000000113ea0       0x98 acpi.o
 .eh_frame      0x0000000000113f38       0x78 pic.o
 .eh_frame      0x0000000000113fb0       0x78 common.o
LOAD entry.o
LOAD main.o
LOAD fb.o
LOAD fbcon.o
LOAD font.o
LOAD asmfunc.o
LOAD serial.o
LOAD idt.o
LOAD util.o
LOAD hpet.o
LOAD acpi.o
LOAD pic.o
LOAD common.o
LOAD handler.o
OUTPUT(kernel.bin binary)

.comment        0x0000000000000000       0xc6
 .comment       0x0000000000000000       0x12 main.o
 .comment       0x0000000000000012       0x12 fb.o
 .comment       0x0000000000000024       0x12 fbcon.o
 .comment       0x0000000000000036       0x12 font.o
 .comment       0x0000000000000048       0x12 serial.o
 .comment       0x000000000000005a       0x12 idt.o
 .comment       0x000000000000006c       0x12 util.o
 .comment       0x000000000000007e       0x12 hpet.o
 .comment       0x0000000000000090       0x12 acpi.o
 .comment       0x00000000000000a2       0x12 pic.o
 .comment       0x00000000000000b4       0x12 common.o

.note.GNU-stack
                0x0000000000000000        0x0
 .note.GNU-stack
                0x0000000000000000        0x0 main.o
 .note.GNU-stack
                0x0000000000000000        0x0 fb.o
 .note.GNU-stack
                0x0000000000000000        0x0 fbcon.o
 .note.GNU-stack
                0x0000000000000000        0x0 font.o
 .note.GNU-stack
                0x0000000000000000        0x0 serial.o
 .note.GNU-stack
                0x0000000000000000        0x0 idt.o
 .note.GNU-stack
                0x0000000000000000        0x0 util.o
 .note.GNU-stack
                0x0000000000000000        0x0 hpet.o
 .note.GNU-stack
                0x0000000000000000        0x0 acpi.o
 .note.GNU-stack
                0x0000000000000000        0x0 pic.o
 .note.GNU-stack
                0x0000000000000000        0x0 common.o
